; Function Attrs: nofree norecurse nosync nounwind memory(readwrite, inaccessiblemem: none) uwtable
define hidden range(i32 0, 16) i32 @lxb_encoding_decode_koi8_r(ptr noundef captures(none) %0, ptr noundef captures(none) %1, ptr noundef readnone captures(address) %2) local_unnamed_addr #0 {
  %4 = load ptr, ptr %1, align 8, !tbaa !4
  %.not4651 = icmp ult ptr %4, %2
  br i1 %.not4651, label %.lr.ph, label %.loopexit

.lr.ph:                                           ; preds = %3
  %5 = getelementptr inbounds nuw i8, ptr %0, i64 48
  %6 = getelementptr inbounds nuw i8, ptr %0, i64 24
  %7 = getelementptr inbounds nuw i8, ptr %0, i64 16
  %8 = getelementptr inbounds nuw i8, ptr %0, i64 8
  %9 = getelementptr inbounds nuw i8, ptr %0, i64 32
  %10 = getelementptr inbounds nuw i8, ptr %0, i64 40
  br label %11

11:                                               ; preds = %.lr.ph, %.backedge
  %.03652 = phi ptr [ %4, %.lr.ph ], [ %.036.be, %.backedge ]
  %12 = load i8, ptr %.03652, align 1, !tbaa !24
  %13 = zext i8 %12 to i32
  %14 = icmp sgt i8 %12, -1
  br i1 %14, label %15, label %20

15:                                               ; preds = %11
  %16 = load i64, ptr %6, align 8, !tbaa !20
  %17 = load i64, ptr %7, align 8, !tbaa !22
  %.not45 = icmp ult i64 %16, %17
  br i1 %.not45, label %18, label %.loopexit.sink.split

18:                                               ; preds = %15
  %19 = getelementptr inbounds nuw i8, ptr %.03652, i64 1
  br label %46

20:                                               ; preds = %11
  %21 = getelementptr inbounds nuw i8, ptr %.03652, i64 1
  %22 = add nsw i32 %13, -128
  %23 = zext nneg i32 %22 to i64
  %24 = getelementptr inbounds nuw [128 x %struct.lxb_encoding_single_index_t], ptr @lxb_encoding_single_index_koi8_r, i64 0, i64 %23, i32 2
  %25 = load i32, ptr %24, align 4, !tbaa !28
  store i32 %25, ptr %5, align 8, !tbaa !25
  %26 = icmp eq i32 %25, 2097151
  br i1 %26, label %27, label %43

27:                                               ; preds = %20
  %28 = load ptr, ptr %9, align 8, !tbaa !19
  %29 = icmp eq ptr %28, null
  br i1 %29, label %.loopexit, label %30

30:                                               ; preds = %27
  %31 = load i64, ptr %6, align 8, !tbaa !20
  %32 = load i64, ptr %10, align 8, !tbaa !21
  %33 = add i64 %32, %31
  %34 = load i64, ptr %7, align 8, !tbaa !22
  %35 = icmp ugt i64 %33, %34
  br i1 %35, label %.loopexit.sink.split, label %36

36:                                               ; preds = %30
  %37 = load ptr, ptr %8, align 8, !tbaa !23
  %38 = getelementptr inbounds nuw i32, ptr %37, i64 %31
  %39 = shl i64 %32, 2
  tail call void @llvm.memcpy.p0.p0.i64(ptr align 4 %38, ptr nonnull align 4 %28, i64 %39, i1 false)
  %40 = load i64, ptr %10, align 8, !tbaa !21
  %41 = load i64, ptr %6, align 8, !tbaa !20
  %42 = add i64 %41, %40
  store i64 %42, ptr %6, align 8, !tbaa !20
  br label %.backedge

.backedge:                                        ; preds = %36, %46
  %.036.be = phi ptr [ %.1, %46 ], [ %21, %36 ]
  %.not46 = icmp ult ptr %.036.be, %2
  br i1 %.not46, label %11, label %.loopexit

43:                                               ; preds = %20
  %44 = load i64, ptr %6, align 8, !tbaa !20
  %45 = load i64, ptr %7, align 8, !tbaa !22
  %.not = icmp ult i64 %44, %45
  br i1 %.not, label %46, label %.loopexit.sink.split

46:                                               ; preds = %43, %18
  %.sink67 = phi i64 [ %16, %18 ], [ %44, %43 ]
  %.sink = phi i32 [ %13, %18 ], [ %25, %43 ]
  %.1 = phi ptr [ %19, %18 ], [ %21, %43 ]
  %47 = load ptr, ptr %8, align 8, !tbaa !23
  %48 = add nuw i64 %.sink67, 1
  store i64 %48, ptr %6, align 8, !tbaa !20
  %49 = getelementptr inbounds nuw i32, ptr %47, i64 %.sink67
  store i32 %.sink, ptr %49, align 4, !tbaa !26
  store ptr %.1, ptr %1, align 8, !tbaa !4
  br label %.backedge

.loopexit.sink.split:                             ; preds = %43, %30, %15
  %.lcssa.sink = phi ptr [ %.03652, %15 ], [ %.03652, %30 ], [ %21, %43 ]
  store ptr %.lcssa.sink, ptr %1, align 8, !tbaa !4
  br label %.loopexit

.loopexit:                                        ; preds = %27, %.backedge, %.loopexit.sink.split, %3
  %spec.select = phi i32 [ 0, %3 ], [ 15, %.loopexit.sink.split ], [ 1, %27 ], [ 0, %.backedge ]
  ret i32 %spec.select
}